target datalayout = "e-m:e-p270:32:32-p271:32:32-p272:64:64-i64:64-i128:128-f80:128-n8:16:32:64-S128"
target triple = "x86_64-pc-linux-gnu"

%struct.parameters_ = type { i32, i32, i64, i64, i64, i32, i32, [32 x i64], [32 x i64], [32 x i64], [32 x i32], i64, i64, i32, i32, i32, i32, i64, i64 }

@stderr = external global ptr, align 8
@.str = private unnamed_addr constant [30 x i8] c"Unknown IO type request (%d)\0A\00", align 1
@H5_libinit_g = external global i8, align 1
@H5_libterm_g = external global i8, align 1
@.str.26 = private unnamed_addr constant [34 x i8] c"HDF5 Property List Create failed\0A\00", align 1
@.str.48 = private unnamed_addr constant [28 x i8] c"POSIX File Open failed(%s)\0A\00", align 1
@fapl = internal global i64 0, align 8
@H5P_CLS_FILE_CREATE_ID_g = external global i64, align 8
@.str.49 = private unnamed_addr constant [29 x i8] c"HDF5 File Create failed(%s)\0A\00", align 1

; Function Attrs: nounwind uwtable
define internal i32 @do_fopen(ptr noundef %0, ptr noundef %1, ptr noundef %2, i32 noundef %3) #0 {
  %5 = alloca ptr, align 8
  %6 = alloca ptr, align 8
  %7 = alloca ptr, align 8
  %8 = alloca i32, align 4
  %9 = alloca i32, align 4
  %10 = alloca i64, align 8
  store ptr %0, ptr %5, align 8, !tbaa !28
  store ptr %1, ptr %6, align 8, !tbaa !9
  store ptr %2, ptr %7, align 8, !tbaa !34
  store i32 %3, ptr %8, align 4, !tbaa !11
  call void @llvm.lifetime.start.p0(i64 4, ptr %9) #10
  store i32 0, ptr %9, align 4, !tbaa !11
  call void @llvm.lifetime.start.p0(i64 8, ptr %10) #10
  %11 = load ptr, ptr %5, align 8, !tbaa !28
  %12 = getelementptr inbounds nuw %struct.parameters_, ptr %11, i32 0, i32 0
  %13 = load i32, ptr %12, align 8, !tbaa !13
  switch i32 %13, label %120 [
    i32 0, label %14
    i32 1, label %38
  ]

14:                                               ; preds = %4
  %15 = load i32, ptr %8, align 4, !tbaa !11
  %16 = and i32 %15, 3
  %17 = icmp ne i32 %16, 0
  br i1 %17, label %18, label %22

18:                                               ; preds = %14
  %19 = load ptr, ptr %6, align 8, !tbaa !9
  %20 = call i32 (ptr, i32, ...) @open64(ptr noundef %19, i32 noundef 578, i32 noundef 384)
  %21 = load ptr, ptr %7, align 8, !tbaa !34
  store i32 %20, ptr %21, align 8, !tbaa !16
  br label %26

22:                                               ; preds = %14
  %23 = load ptr, ptr %6, align 8, !tbaa !9
  %24 = call i32 (ptr, i32, ...) @open64(ptr noundef %23, i32 noundef 0, i32 noundef 384)
  %25 = load ptr, ptr %7, align 8, !tbaa !34
  store i32 %24, ptr %25, align 8, !tbaa !16
  br label %26

26:                                               ; preds = %22, %18
  %27 = load ptr, ptr %7, align 8, !tbaa !34
  %28 = load i32, ptr %27, align 8, !tbaa !16
  %29 = icmp slt i32 %28, 0
  br i1 %29, label %30, label %37

30:                                               ; preds = %26
  %31 = load ptr, ptr @stderr, align 8, !tbaa !20
  %32 = load ptr, ptr %6, align 8, !tbaa !9
  %33 = call i32 (ptr, ptr, ...) @fprintf(ptr noundef %31, ptr noundef @.str.48, ptr noundef %32) #10
  br label %34

34:                                               ; preds = %30
  store i32 -1, ptr %9, align 4, !tbaa !11
  br label %130

35:                                               ; No predecessors!
  br label %36

36:                                               ; preds = %35
  br label %37

37:                                               ; preds = %36, %26
  br label %129

38:                                               ; preds = %4
  %39 = load ptr, ptr %5, align 8, !tbaa !28
  %40 = call i64 @set_vfd(ptr noundef %39)
  store i64 %40, ptr @fapl, align 8, !tbaa !22
  %41 = load i64, ptr @fapl, align 8, !tbaa !22
  %42 = icmp slt i64 %41, 0
  br i1 %42, label %43, label %49

43:                                               ; preds = %38
  %44 = load ptr, ptr @stderr, align 8, !tbaa !20
  %45 = call i32 (ptr, ptr, ...) @fprintf(ptr noundef %44, ptr noundef @.str.26) #10
  br label %46

46:                                               ; preds = %43
  store i32 -1, ptr %9, align 4, !tbaa !11
  br label %130

47:                                               ; No predecessors!
  br label %48

48:                                               ; preds = %47
  br label %49

49:                                               ; preds = %48, %38
  %50 = load i8, ptr @H5_libinit_g, align 1, !tbaa !35, !range !37, !noundef !38
  %51 = trunc i8 %50 to i1
  br i1 %51, label %56, label %52

52:                                               ; preds = %49
  %53 = load i8, ptr @H5_libterm_g, align 1, !tbaa !35, !range !37, !noundef !38
  %54 = trunc i8 %53 to i1
  %55 = xor i1 %54, true
  br label %56

56:                                               ; preds = %52, %49
  %57 = phi i1 [ false, %49 ], [ %55, %52 ]
  %58 = xor i1 %57, true
  %59 = xor i1 %58, true
  %60 = zext i1 %59 to i32
  %61 = sext i32 %60 to i64
  %62 = call i64 @llvm.expect.i64(i64 %61, i64 0)
  %63 = icmp ne i64 %62, 0
  br i1 %63, label %64, label %66

64:                                               ; preds = %56
  %65 = call i32 @H5open()
  br label %67

66:                                               ; preds = %56
  br label %67

67:                                               ; preds = %66, %64
  %68 = load i64, ptr @H5P_CLS_FILE_CREATE_ID_g, align 8, !tbaa !22
  %69 = call i64 @H5Pcreate(i64 noundef %68)
  store i64 %69, ptr %10, align 8, !tbaa !22
  %70 = load ptr, ptr %5, align 8, !tbaa !28
  %71 = getelementptr inbounds nuw %struct.parameters_, ptr %70, i32 0, i32 17
  %72 = load i64, ptr %71, align 8, !tbaa !39
  %73 = icmp ne i64 %72, 0
  br i1 %73, label %74, label %93

74:                                               ; preds = %67
  %75 = load i64, ptr %10, align 8, !tbaa !22
  %76 = call i32 @H5Pset_file_space_strategy(i64 noundef %75, i32 noundef 1, i1 noundef zeroext false, i64 noundef 1)
  %77 = load i64, ptr %10, align 8, !tbaa !22
  %78 = load ptr, ptr %5, align 8, !tbaa !28
  %79 = getelementptr inbounds nuw %struct.parameters_, ptr %78, i32 0, i32 17
  %80 = load i64, ptr %79, align 8, !tbaa !39
  %81 = call i32 @H5Pset_file_space_page_size(i64 noundef %77, i64 noundef %80)
  %82 = load ptr, ptr %5, align 8, !tbaa !28
  %83 = getelementptr inbounds nuw %struct.parameters_, ptr %82, i32 0, i32 18
  %84 = load i64, ptr %83, align 8, !tbaa !40
  %85 = icmp ne i64 %84, 0
  br i1 %85, label %86, label %92

86:                                               ; preds = %74
  %87 = load i64, ptr @fapl, align 8, !tbaa !22
  %88 = load ptr, ptr %5, align 8, !tbaa !28
  %89 = getelementptr inbounds nuw %struct.parameters_, ptr %88, i32 0, i32 18
  %90 = load i64, ptr %89, align 8, !tbaa !40
  %91 = call i32 @H5Pset_page_buffer_size(i64 noundef %87, i64 noundef %90, i32 noundef 0, i32 noundef 0)
  br label %92

92:                                               ; preds = %86, %74
  br label %93

93:                                               ; preds = %92, %67
  %94 = load i32, ptr %8, align 4, !tbaa !11
  %95 = and i32 %94, 3
  %96 = icmp ne i32 %95, 0
  br i1 %96, label %97, label %103

97:                                               ; preds = %93
  %98 = load ptr, ptr %6, align 8, !tbaa !9
  %99 = load i64, ptr %10, align 8, !tbaa !22
  %100 = load i64, ptr @fapl, align 8, !tbaa !22
  %101 = call i64 @H5Fcreate(ptr noundef %98, i32 noundef 2, i64 noundef %99, i64 noundef %100)
  %102 = load ptr, ptr %7, align 8, !tbaa !34
  store i64 %101, ptr %102, align 8, !tbaa !16
  br label %108

103:                                              ; preds = %93
  %104 = load ptr, ptr %6, align 8, !tbaa !9
  %105 = load i64, ptr @fapl, align 8, !tbaa !22
  %106 = call i64 @H5Fopen(ptr noundef %104, i32 noundef 0, i64 noundef %105)
  %107 = load ptr, ptr %7, align 8, !tbaa !34
  store i64 %106, ptr %107, align 8, !tbaa !16
  br label %108

108:                                              ; preds = %103, %97
  %109 = load ptr, ptr %7, align 8, !tbaa !34
  %110 = load i64, ptr %109, align 8, !tbaa !16
  %111 = icmp slt i64 %110, 0
  br i1 %111, label %112, label %119

112:                                              ; preds = %108
  %113 = load ptr, ptr @stderr, align 8, !tbaa !20
  %114 = load ptr, ptr %6, align 8, !tbaa !9
  %115 = call i32 (ptr, ptr, ...) @fprintf(ptr noundef %113, ptr noundef @.str.49, ptr noundef %114) #10
  br label %116

116:                                              ; preds = %112
  store i32 -1, ptr %9, align 4, !tbaa !11
  br label %130

117:                                              ; No predecessors!
  br label %118

118:                                              ; preds = %117
  br label %119

119:                                              ; preds = %118, %108
  br label %129

120:                                              ; preds = %4
  %121 = load ptr, ptr @stderr, align 8, !tbaa !20
  %122 = load ptr, ptr %5, align 8, !tbaa !28
  %123 = getelementptr inbounds nuw %struct.parameters_, ptr %122, i32 0, i32 0
  %124 = load i32, ptr %123, align 8, !tbaa !13
  %125 = call i32 (ptr, ptr, ...) @fprintf(ptr noundef %121, ptr noundef @.str, i32 noundef %124) #10
  br label %126

126:                                              ; preds = %120
  store i32 -1, ptr %9, align 4, !tbaa !11
  br label %130

127:                                              ; No predecessors!
  br label %128

128:                                              ; preds = %127
  br label %129

129:                                              ; preds = %128, %119, %37
  br label %130

130:                                              ; preds = %129, %126, %116, %46, %34
  %131 = load i32, ptr %9, align 4, !tbaa !11
  call void @llvm.lifetime.end.p0(i64 8, ptr %10) #10
  call void @llvm.lifetime.end.p0(i64 4, ptr %9) #10
  ret i32 %131
}