; Function Attrs: nounwind uwtable
define internal fastcc range(i32 -1, 1) i32 @do_fopen(ptr noundef readonly captures(none) %0, ptr noundef nonnull %1, ptr noundef nonnull writeonly captures(none) %2, i32 noundef range(i32 3, 5) %3) unnamed_addr #0 {
  %5 = load i32, ptr %0, align 8, !tbaa !4
  switch i32 %5, label %53 [
    i32 0, label %6
    i32 1, label %13
  ]

6:                                                ; preds = %4
  %7 = and i32 %3, 3
  %.not27 = icmp eq i32 %7, 0
  %. = select i1 %.not27, i32 0, i32 578
  %8 = tail call i32 (ptr, i32, ...) @open64(ptr noundef nonnull %1, i32 noundef %., i32 noundef 384) #17
  store i32 %8, ptr %2, align 8, !tbaa !10
  %9 = icmp slt i32 %8, 0
  br i1 %9, label %10, label %56

10:                                               ; preds = %6
  %11 = load ptr, ptr @stderr, align 8, !tbaa !11
  %12 = tail call i32 (ptr, ptr, ...) @fprintf(ptr noundef %11, ptr noundef nonnull @.str.48, ptr noundef nonnull %1) #18
  br label %56

13:                                               ; preds = %4
  %14 = tail call i64 @set_vfd(ptr noundef nonnull %0)
  store i64 %14, ptr @fapl, align 8, !tbaa !17
  %15 = icmp slt i64 %14, 0
  br i1 %15, label %16, label %19

16:                                               ; preds = %13
  %17 = load ptr, ptr @stderr, align 8, !tbaa !11
  %18 = tail call i64 @fwrite(ptr nonnull @.str.26, i64 33, i64 1, ptr %17) #23
  br label %56

19:                                               ; preds = %13
  %20 = load i8, ptr @H5_libinit_g, align 1, !tbaa !33, !range !35, !noundef !36
  %21 = trunc nuw i8 %20 to i1
  %22 = load i8, ptr @H5_libterm_g, align 1, !range !35
  %23 = trunc nuw i8 %22 to i1
  %24 = select i1 %21, i1 true, i1 %23
  br i1 %24, label %27, label %25, !prof !37

25:                                               ; preds = %19
  %26 = tail call i32 @H5open() #17
  br label %27

27:                                               ; preds = %19, %25
  %28 = load i64, ptr @H5P_CLS_FILE_CREATE_ID_g, align 8, !tbaa !17
  %29 = tail call i64 @H5Pcreate(i64 noundef %28) #17
  %30 = getelementptr inbounds nuw i8, ptr %0, i64 968
  %31 = load i64, ptr %30, align 8, !tbaa !45
  %.not = icmp eq i64 %31, 0
  br i1 %.not, label %41, label %32

32:                                               ; preds = %27
  %33 = tail call i32 @H5Pset_file_space_strategy(i64 noundef %29, i32 noundef 1, i1 noundef zeroext false, i64 noundef 1) #17
  %34 = load i64, ptr %30, align 8, !tbaa !45
  %35 = tail call i32 @H5Pset_file_space_page_size(i64 noundef %29, i64 noundef %34) #17
  %36 = getelementptr inbounds nuw i8, ptr %0, i64 976
  %37 = load i64, ptr %36, align 8, !tbaa !46
  %.not25 = icmp eq i64 %37, 0
  br i1 %.not25, label %41, label %38

38:                                               ; preds = %32
  %39 = load i64, ptr @fapl, align 8, !tbaa !17
  %40 = tail call i32 @H5Pset_page_buffer_size(i64 noundef %39, i64 noundef %37, i32 noundef 0, i32 noundef 0) #17
  br label %41

41:                                               ; preds = %32, %38, %27
  %42 = and i32 %3, 3
  %.not26 = icmp eq i32 %42, 0
  %43 = load i64, ptr @fapl, align 8, !tbaa !17
  br i1 %.not26, label %46, label %44

44:                                               ; preds = %41
  %45 = tail call i64 @H5Fcreate(ptr noundef nonnull %1, i32 noundef 2, i64 noundef %29, i64 noundef %43) #17
  br label %48

46:                                               ; preds = %41
  %47 = tail call i64 @H5Fopen(ptr noundef nonnull %1, i32 noundef 0, i64 noundef %43) #17
  br label %48

48:                                               ; preds = %46, %44
  %storemerge = phi i64 [ %47, %46 ], [ %45, %44 ]
  store i64 %storemerge, ptr %2, align 8, !tbaa !10
  %49 = icmp slt i64 %storemerge, 0
  br i1 %49, label %50, label %56

50:                                               ; preds = %48
  %51 = load ptr, ptr @stderr, align 8, !tbaa !11
  %52 = tail call i32 (ptr, ptr, ...) @fprintf(ptr noundef %51, ptr noundef nonnull @.str.49, ptr noundef nonnull %1) #18
  br label %56

53:                                               ; preds = %4
  %54 = load ptr, ptr @stderr, align 8, !tbaa !11
  %55 = tail call i32 (ptr, ptr, ...) @fprintf(ptr noundef %54, ptr noundef nonnull @.str, i32 noundef %5) #18
  br label %56

56:                                               ; preds = %6, %48, %53, %50, %16, %10
  %.0 = phi i32 [ -1, %53 ], [ -1, %16 ], [ -1, %50 ], [ 0, %48 ], [ -1, %10 ], [ 0, %6 ]
  ret i32 %.0
}